target datalayout = "e-m:e-p270:32:32-p271:32:32-p272:64:64-i64:64-i128:128-f80:128-n8:16:32:64-S128"
target triple = "x86_64-pc-linux-gnu"

%"class.duckdb::ColumnReader" = type { ptr, ptr, ptr, i64, i8, ptr, ptr, i64, i64, i64, %"class.duckdb::shared_ptr", %"class.duckdb::ResizeableBuffer", i32, %"class.duckdb::unique_ptr", %"class.duckdb::unique_ptr", %"class.duckdb::DictionaryDecoder", %"class.duckdb::DeltaBinaryPackedDecoder", %"class.duckdb::RLEDecoder", %"class.duckdb::DeltaLengthByteArrayDecoder", %"class.duckdb::DeltaByteArrayDecoder", %"class.duckdb::ByteStreamSplitDecoder", [2 x %"class.duckdb::ResizeableBuffer"] }
%"class.duckdb::shared_ptr" = type { %"class.std::shared_ptr" }
%"class.std::shared_ptr" = type { %"class.std::__shared_ptr" }
%"class.std::__shared_ptr" = type { ptr, %"class.std::__shared_count" }
%"class.std::__shared_count" = type { ptr }
%"class.duckdb::ResizeableBuffer" = type { %"class.duckdb::ByteBuffer", %"class.duckdb::AllocatedData", i64 }
%"class.duckdb::ByteBuffer" = type { ptr, i64 }
%"class.duckdb::AllocatedData" = type { %"class.duckdb::optional_ptr", ptr, i64 }
%"class.duckdb::optional_ptr" = type { ptr }
%"class.duckdb::unique_ptr" = type { %"class.std::unique_ptr" }
%"class.std::unique_ptr" = type { %"struct.std::__uniq_ptr_data" }
%"struct.std::__uniq_ptr_data" = type { %"class.std::__uniq_ptr_impl" }
%"class.std::__uniq_ptr_impl" = type { %"class.std::tuple" }
%"class.std::tuple" = type { %"struct.std::_Tuple_impl" }
%"struct.std::_Tuple_impl" = type { %"struct.std::_Head_base.1" }
%"struct.std::_Head_base.1" = type { ptr }
%"class.duckdb::DictionaryDecoder" = type { ptr, ptr, %"class.duckdb::unique_ptr", %"struct.duckdb::SelectionVector", %"struct.duckdb::SelectionVector", i64, %"class.duckdb::unique_ptr.6", %"class.duckdb::unique_ptr.15", i64, i8, %"class.std::__cxx11::basic_string" }
%"struct.duckdb::SelectionVector" = type { ptr, %"class.duckdb::shared_ptr.2" }
%"class.duckdb::shared_ptr.2" = type { %"class.std::shared_ptr.3" }
%"class.std::shared_ptr.3" = type { %"class.std::__shared_ptr.4" }
%"class.std::__shared_ptr.4" = type { ptr, %"class.std::__shared_count" }
%"class.duckdb::unique_ptr.6" = type { %"class.std::unique_ptr.7" }
%"class.std::unique_ptr.7" = type { %"struct.std::__uniq_ptr_data.8" }
%"struct.std::__uniq_ptr_data.8" = type { %"class.std::__uniq_ptr_impl.9" }
%"class.std::__uniq_ptr_impl.9" = type { %"class.std::tuple.10" }
%"class.std::tuple.10" = type { %"struct.std::_Tuple_impl.11" }
%"struct.std::_Tuple_impl.11" = type { %"struct.std::_Head_base.14" }
%"struct.std::_Head_base.14" = type { ptr }
%"class.duckdb::unique_ptr.15" = type { %"class.std::unique_ptr.16" }
%"class.std::unique_ptr.16" = type { %"struct.std::__uniq_ptr_data.17" }
%"struct.std::__uniq_ptr_data.17" = type { %"class.std::__uniq_ptr_impl.18" }
%"class.std::__uniq_ptr_impl.18" = type { %"class.std::tuple.19" }
%"class.std::tuple.19" = type { %"struct.std::_Tuple_impl.20" }
%"struct.std::_Tuple_impl.20" = type { %"struct.std::_Head_base.23" }
%"struct.std::_Head_base.23" = type { ptr }
%"class.std::__cxx11::basic_string" = type { %"struct.std::__cxx11::basic_string<char>::_Alloc_hider", i64, %union.anon }
%"struct.std::__cxx11::basic_string<char>::_Alloc_hider" = type { ptr }
%union.anon = type { i64, [8 x i8] }
%"class.duckdb::DeltaBinaryPackedDecoder" = type { ptr, ptr, %"class.duckdb::unique_ptr.24" }
%"class.duckdb::unique_ptr.24" = type { %"class.std::unique_ptr.25" }
%"class.std::unique_ptr.25" = type { %"struct.std::__uniq_ptr_data.26" }
%"struct.std::__uniq_ptr_data.26" = type { %"class.std::__uniq_ptr_impl.27" }
%"class.std::__uniq_ptr_impl.27" = type { %"class.std::tuple.28" }
%"class.std::tuple.28" = type { %"struct.std::_Tuple_impl.29" }
%"struct.std::_Tuple_impl.29" = type { %"struct.std::_Head_base.32" }
%"struct.std::_Head_base.32" = type { ptr }
%"class.duckdb::RLEDecoder" = type { ptr, ptr, %"class.duckdb::unique_ptr" }
%"class.duckdb::DeltaLengthByteArrayDecoder" = type { ptr, ptr, i64, i64 }
%"class.duckdb::DeltaByteArrayDecoder" = type { ptr, %"class.duckdb::unique_ptr.6", i64, i64 }
%"class.duckdb::ByteStreamSplitDecoder" = type { ptr, ptr, %"class.duckdb::unique_ptr.33" }
%"class.duckdb::unique_ptr.33" = type { %"class.std::unique_ptr.34" }
%"class.std::unique_ptr.34" = type { %"struct.std::__uniq_ptr_data.35" }
%"struct.std::__uniq_ptr_data.35" = type { %"class.std::__uniq_ptr_impl.36" }
%"class.std::__uniq_ptr_impl.36" = type { %"class.std::tuple.37" }
%"class.std::tuple.37" = type { %"struct.std::_Tuple_impl.38" }
%"struct.std::_Tuple_impl.38" = type { %"struct.std::_Head_base.41" }
%"struct.std::_Head_base.41" = type { ptr }
%"class.duckdb::vector.142" = type { %"class.std::vector.143" }
%"class.std::vector.143" = type { %"struct.std::_Vector_base.144" }
%"struct.std::_Vector_base.144" = type { %"struct.std::_Vector_base<std::__cxx11::basic_string<char>, std::allocator<std::__cxx11::basic_string<char>>>::_Vector_impl" }
%"struct.std::_Vector_base<std::__cxx11::basic_string<char>, std::allocator<std::__cxx11::basic_string<char>>>::_Vector_impl" = type { %"struct.std::_Vector_base<std::__cxx11::basic_string<char>, std::allocator<std::__cxx11::basic_string<char>>>::_Vector_impl_data" }
%"struct.std::_Vector_base<std::__cxx11::basic_string<char>, std::allocator<std::__cxx11::basic_string<char>>>::_Vector_impl_data" = type { ptr, ptr, ptr }
%"class.duckdb_parquet::ColumnChunk" = type <{ %"class.duckdb_apache::thrift::TBase", %"class.std::__cxx11::basic_string", i64, %"class.duckdb_parquet::ColumnMetaData", i64, i32, [4 x i8], i64, i32, [4 x i8], %"class.duckdb_parquet::ColumnCryptoMetaData", %"class.std::__cxx11::basic_string", %"struct.duckdb_parquet::_ColumnChunk__isset", [7 x i8] }>
%"class.duckdb_apache::thrift::TBase" = type { ptr }
%"class.duckdb_parquet::ColumnMetaData" = type <{ %"class.duckdb_apache::thrift::TBase", i32, [4 x i8], %"class.duckdb::vector.166", %"class.duckdb::vector.142", i32, [4 x i8], i64, i64, i64, %"class.duckdb::vector.172", i64, i64, i64, %"class.duckdb_parquet::Statistics", %"class.duckdb::vector.178", i64, i32, [4 x i8], %"class.duckdb_parquet::SizeStatistics", %"struct.duckdb_parquet::_ColumnMetaData__isset", [7 x i8] }>
%"class.duckdb::vector.166" = type { %"class.std::vector.167" }
%"class.std::vector.167" = type { %"struct.std::_Vector_base.168" }
%"struct.std::_Vector_base.168" = type { %"struct.std::_Vector_base<duckdb_parquet::Encoding::type, std::allocator<duckdb_parquet::Encoding::type>>::_Vector_impl" }
%"struct.std::_Vector_base<duckdb_parquet::Encoding::type, std::allocator<duckdb_parquet::Encoding::type>>::_Vector_impl" = type { %"struct.std::_Vector_base<duckdb_parquet::Encoding::type, std::allocator<duckdb_parquet::Encoding::type>>::_Vector_impl_data" }
%"struct.std::_Vector_base<duckdb_parquet::Encoding::type, std::allocator<duckdb_parquet::Encoding::type>>::_Vector_impl_data" = type { ptr, ptr, ptr }
%"class.duckdb::vector.172" = type { %"class.std::vector.173" }
%"class.std::vector.173" = type { %"struct.std::_Vector_base.174" }
%"struct.std::_Vector_base.174" = type { %"struct.std::_Vector_base<duckdb_parquet::KeyValue, std::allocator<duckdb_parquet::KeyValue>>::_Vector_impl" }
%"struct.std::_Vector_base<duckdb_parquet::KeyValue, std::allocator<duckdb_parquet::KeyValue>>::_Vector_impl" = type { %"struct.std::_Vector_base<duckdb_parquet::KeyValue, std::allocator<duckdb_parquet::KeyValue>>::_Vector_impl_data" }
%"struct.std::_Vector_base<duckdb_parquet::KeyValue, std::allocator<duckdb_parquet::KeyValue>>::_Vector_impl_data" = type { ptr, ptr, ptr }
%"class.duckdb_parquet::Statistics" = type <{ %"class.duckdb_apache::thrift::TBase", %"class.std::__cxx11::basic_string", %"class.std::__cxx11::basic_string", i64, i64, %"class.std::__cxx11::basic_string", %"class.std::__cxx11::basic_string", i8, i8, %"struct.duckdb_parquet::_Statistics__isset", [5 x i8] }>
%"struct.duckdb_parquet::_Statistics__isset" = type { i8 }
%"class.duckdb::vector.178" = type { %"class.std::vector.179" }
%"class.std::vector.179" = type { %"struct.std::_Vector_base.180" }
%"struct.std::_Vector_base.180" = type { %"struct.std::_Vector_base<duckdb_parquet::PageEncodingStats, std::allocator<duckdb_parquet::PageEncodingStats>>::_Vector_impl" }
%"struct.std::_Vector_base<duckdb_parquet::PageEncodingStats, std::allocator<duckdb_parquet::PageEncodingStats>>::_Vector_impl" = type { %"struct.std::_Vector_base<duckdb_parquet::PageEncodingStats, std::allocator<duckdb_parquet::PageEncodingStats>>::_Vector_impl_data" }
%"struct.std::_Vector_base<duckdb_parquet::PageEncodingStats, std::allocator<duckdb_parquet::PageEncodingStats>>::_Vector_impl_data" = type { ptr, ptr, ptr }
%"class.duckdb_parquet::SizeStatistics" = type <{ %"class.duckdb_apache::thrift::TBase", i64, %"class.duckdb::vector.184", %"class.duckdb::vector.184", %"struct.duckdb_parquet::_SizeStatistics__isset", [7 x i8] }>
%"class.duckdb::vector.184" = type { %"class.std::vector.185" }
%"class.std::vector.185" = type { %"struct.std::_Vector_base.186" }
%"struct.std::_Vector_base.186" = type { %"struct.std::_Vector_base<long, std::allocator<long>>::_Vector_impl" }
%"struct.std::_Vector_base<long, std::allocator<long>>::_Vector_impl" = type { %"struct.std::_Vector_base<long, std::allocator<long>>::_Vector_impl_data" }
%"struct.std::_Vector_base<long, std::allocator<long>>::_Vector_impl_data" = type { ptr, ptr, ptr }
%"struct.duckdb_parquet::_SizeStatistics__isset" = type { i8 }
%"struct.duckdb_parquet::_ColumnMetaData__isset" = type { i8 }
%"class.duckdb_parquet::ColumnCryptoMetaData" = type <{ %"class.duckdb_apache::thrift::TBase", %"class.duckdb_parquet::EncryptionWithFooterKey", %"class.duckdb_parquet::EncryptionWithColumnKey", %"struct.duckdb_parquet::_ColumnCryptoMetaData__isset", [7 x i8] }>
%"class.duckdb_parquet::EncryptionWithFooterKey" = type { %"class.duckdb_apache::thrift::TBase" }
%"class.duckdb_parquet::EncryptionWithColumnKey" = type <{ %"class.duckdb_apache::thrift::TBase", %"class.duckdb::vector.142", %"class.std::__cxx11::basic_string", %"struct.duckdb_parquet::_EncryptionWithColumnKey__isset", [7 x i8] }>
%"struct.duckdb_parquet::_EncryptionWithColumnKey__isset" = type { i8 }
%"struct.duckdb_parquet::_ColumnCryptoMetaData__isset" = type { i8 }
%"struct.duckdb_parquet::_ColumnChunk__isset" = type { i8 }

@.str = private unnamed_addr constant [48 x i8] c"FileOffset called on ColumnReader with no chunk\00", align 1
@_ZTISt13runtime_error = external constant ptr

; Function Attrs: mustprogress nounwind uwtable
define linkonce_odr noundef i64 @_ZNSt14numeric_limitsImE3maxEv() #5 comdat align 2 {
  ret i64 -1
}

; Function Attrs: mustprogress nounwind uwtable
define linkonce_odr noundef i64 @_ZN6duckdb8MinValueImEET_S1_S1_(i64 noundef %0, i64 noundef %1) #5 comdat {
  %3 = alloca i64, align 8
  %4 = alloca i64, align 8
  store i64 %0, ptr %3, align 8, !tbaa !245
  store i64 %1, ptr %4, align 8, !tbaa !245
  %5 = load i64, ptr %3, align 8, !tbaa !245
  %6 = load i64, ptr %4, align 8, !tbaa !245
  %7 = icmp ult i64 %5, %6
  br i1 %7, label %8, label %10

8:                                                ; preds = %2
  %9 = load i64, ptr %3, align 8, !tbaa !245
  br label %12

10:                                               ; preds = %2
  %11 = load i64, ptr %4, align 8, !tbaa !245
  br label %12

12:                                               ; preds = %10, %8
  %13 = phi i64 [ %9, %8 ], [ %11, %10 ]
  ret i64 %13
}

; Function Attrs: mustprogress nounwind uwtable
define linkonce_odr noundef i64 @_ZN6duckdb13NumericLimitsImE7MaximumEv() #5 comdat align 2 {
  %1 = call noundef i64 @_ZNSt14numeric_limitsImE3maxEv() #3
  ret i64 %1
}

; Function Attrs: mustprogress uwtable
define noundef i64 @_ZNK6duckdb12ColumnReader10FileOffsetEv(ptr noundef nonnull align 8 dereferenceable(544) %0) unnamed_addr #4 align 2 personality ptr @__gxx_personality_v0 {
  %2 = alloca ptr, align 8
  %3 = alloca ptr, align 8
  %4 = alloca i32, align 4
  %5 = alloca i64, align 8
  store ptr %0, ptr %2, align 8, !tbaa !3
  %6 = load ptr, ptr %2, align 8
  %7 = getelementptr inbounds nuw %"class.duckdb::ColumnReader", ptr %6, i32 0, i32 5
  %8 = load ptr, ptr %7, align 8, !tbaa !88
  %9 = icmp ne ptr %8, null
  br i1 %9, label %17, label %10

10:                                               ; preds = %1
  %11 = call ptr @__cxa_allocate_exception(i64 16) #3
  invoke void @_ZNSt13runtime_errorC1EPKc(ptr noundef nonnull align 8 dereferenceable(16) %11, ptr noundef @.str)
          to label %12 unwind label %13

12:                                               ; preds = %10
  call void @__cxa_throw(ptr %11, ptr @_ZTISt13runtime_error, ptr @_ZNSt13runtime_errorD1Ev) #24
  unreachable

13:                                               ; preds = %10
  %14 = landingpad { ptr, i32 }
          cleanup
  %15 = extractvalue { ptr, i32 } %14, 0
  store ptr %15, ptr %3, align 8
  %16 = extractvalue { ptr, i32 } %14, 1
  store i32 %16, ptr %4, align 4
  call void @__cxa_free_exception(ptr %11) #3
  br label %61

17:                                               ; preds = %1
  call void @llvm.lifetime.start.p0(i64 8, ptr %5) #3
  %18 = call noundef i64 @_ZN6duckdb13NumericLimitsImE7MaximumEv()
  store i64 %18, ptr %5, align 8, !tbaa !245
  %19 = getelementptr inbounds nuw %"class.duckdb::ColumnReader", ptr %6, i32 0, i32 5
  %20 = load ptr, ptr %19, align 8, !tbaa !88
  %21 = getelementptr inbounds nuw %"class.duckdb_parquet::ColumnChunk", ptr %20, i32 0, i32 3
  %22 = getelementptr inbounds nuw %"class.duckdb_parquet::ColumnMetaData", ptr %21, i32 0, i32 20
  %23 = load i8, ptr %22, align 8
  %24 = lshr i8 %23, 2
  %25 = and i8 %24, 1
  %26 = trunc i8 %25 to i1
  br i1 %26, label %27, label %35

27:                                               ; preds = %17
  %28 = load i64, ptr %5, align 8, !tbaa !245
  %29 = getelementptr inbounds nuw %"class.duckdb::ColumnReader", ptr %6, i32 0, i32 5
  %30 = load ptr, ptr %29, align 8, !tbaa !88
  %31 = getelementptr inbounds nuw %"class.duckdb_parquet::ColumnChunk", ptr %30, i32 0, i32 3
  %32 = getelementptr inbounds nuw %"class.duckdb_parquet::ColumnMetaData", ptr %31, i32 0, i32 13
  %33 = load i64, ptr %32, align 8, !tbaa !251
  %34 = call noundef i64 @_ZN6duckdb8MinValueImEET_S1_S1_(i64 noundef %28, i64 noundef %33)
  store i64 %34, ptr %5, align 8, !tbaa !245
  br label %35

35:                                               ; preds = %27, %17
  %36 = getelementptr inbounds nuw %"class.duckdb::ColumnReader", ptr %6, i32 0, i32 5
  %37 = load ptr, ptr %36, align 8, !tbaa !88
  %38 = getelementptr inbounds nuw %"class.duckdb_parquet::ColumnChunk", ptr %37, i32 0, i32 3
  %39 = getelementptr inbounds nuw %"class.duckdb_parquet::ColumnMetaData", ptr %38, i32 0, i32 20
  %40 = load i8, ptr %39, align 8
  %41 = lshr i8 %40, 1
  %42 = and i8 %41, 1
  %43 = trunc i8 %42 to i1
  br i1 %43, label %44, label %52

44:                                               ; preds = %35
  %45 = load i64, ptr %5, align 8, !tbaa !245
  %46 = getelementptr inbounds nuw %"class.duckdb::ColumnReader", ptr %6, i32 0, i32 5
  %47 = load ptr, ptr %46, align 8, !tbaa !88
  %48 = getelementptr inbounds nuw %"class.duckdb_parquet::ColumnChunk", ptr %47, i32 0, i32 3
  %49 = getelementptr inbounds nuw %"class.duckdb_parquet::ColumnMetaData", ptr %48, i32 0, i32 12
  %50 = load i64, ptr %49, align 8, !tbaa !252
  %51 = call noundef i64 @_ZN6duckdb8MinValueImEET_S1_S1_(i64 noundef %45, i64 noundef %50)
  store i64 %51, ptr %5, align 8, !tbaa !245
  br label %52

52:                                               ; preds = %44, %35
  %53 = load i64, ptr %5, align 8, !tbaa !245
  %54 = getelementptr inbounds nuw %"class.duckdb::ColumnReader", ptr %6, i32 0, i32 5
  %55 = load ptr, ptr %54, align 8, !tbaa !88
  %56 = getelementptr inbounds nuw %"class.duckdb_parquet::ColumnChunk", ptr %55, i32 0, i32 3
  %57 = getelementptr inbounds nuw %"class.duckdb_parquet::ColumnMetaData", ptr %56, i32 0, i32 11
  %58 = load i64, ptr %57, align 8, !tbaa !253
  %59 = call noundef i64 @_ZN6duckdb8MinValueImEET_S1_S1_(i64 noundef %53, i64 noundef %58)
  store i64 %59, ptr %5, align 8, !tbaa !245
  %60 = load i64, ptr %5, align 8, !tbaa !245
  call void @llvm.lifetime.end.p0(i64 8, ptr %5) #3
  ret i64 %60

61:                                               ; preds = %13
  %62 = load ptr, ptr %3, align 8
  %63 = load i32, ptr %4, align 4
  %64 = insertvalue { ptr, i32 } poison, ptr %62, 0
  %65 = insertvalue { ptr, i32 } %64, i32 %63, 1
  resume { ptr, i32 } %65
}