; Function Attrs: mustprogress uwtable
define noundef i64 @_ZNK6duckdb12ColumnReader10FileOffsetEv(ptr noundef nonnull readonly align 8 captures(none) dereferenceable(544) %0) unnamed_addr #3 align 2 personality ptr @__gxx_personality_v0 {
  %2 = getelementptr inbounds nuw i8, ptr %0, i64 40
  %3 = load ptr, ptr %2, align 8, !tbaa !87
  %.not = icmp eq ptr %3, null
  br i1 %.not, label %4, label %9

4:                                                ; preds = %1
  %5 = tail call ptr @__cxa_allocate_exception(i64 16) #28
  invoke void @_ZNSt13runtime_errorC1EPKc(ptr noundef nonnull align 8 dereferenceable(16) %5, ptr noundef nonnull @.str)
          to label %6 unwind label %7

6:                                                ; preds = %4
  tail call void @__cxa_throw(ptr nonnull %5, ptr nonnull @_ZTISt13runtime_error, ptr nonnull @_ZNSt13runtime_errorD1Ev) #30
  unreachable

7:                                                ; preds = %4
  %8 = landingpad { ptr, i32 }
          cleanup
  tail call void @__cxa_free_exception(ptr nonnull %5) #28
  resume { ptr, i32 } %8

9:                                                ; preds = %1
  %10 = getelementptr inbounds nuw i8, ptr %3, i64 464
  %11 = load i8, ptr %10, align 8
  %12 = and i8 %11, 4
  %.not6 = icmp eq i8 %12, 0
  br i1 %.not6, label %16, label %13

13:                                               ; preds = %9
  %14 = getelementptr inbounds nuw i8, ptr %3, i64 184
  %15 = load i64, ptr %14, align 8, !tbaa !236
  br label %16

16:                                               ; preds = %13, %9
  %.0 = phi i64 [ %15, %13 ], [ -1, %9 ]
  %17 = and i8 %11, 2
  %.not7 = icmp eq i8 %17, 0
  br i1 %.not7, label %22, label %18

18:                                               ; preds = %16
  %19 = getelementptr inbounds nuw i8, ptr %3, i64 176
  %20 = load i64, ptr %19, align 8, !tbaa !237
  %21 = tail call noundef i64 @llvm.umin.i64(i64 %.0, i64 %20)
  br label %22

22:                                               ; preds = %18, %16
  %.1 = phi i64 [ %21, %18 ], [ %.0, %16 ]
  %23 = getelementptr inbounds nuw i8, ptr %3, i64 168
  %24 = load i64, ptr %23, align 8, !tbaa !238
  %25 = tail call noundef i64 @llvm.umin.i64(i64 %.1, i64 %24)
  ret i64 %25
}